; Function Attrs: nounwind uwtable
define ptr @l___private_Lean_Meta_Injective_0__Lean_Meta_mkInjectiveTheoremTypeCore_x3f___lambda__4(ptr noundef %0, ptr noundef %1, ptr noundef %2, i8 noundef zeroext %3, ptr noundef %4, ptr noundef %5, ptr noundef %6, ptr noundef %7, ptr noundef %8, ptr noundef %9, ptr noundef %10, ptr noundef %11) local_unnamed_addr #0 {
  %13 = ptrtoint ptr %6 to i64
  %14 = and i64 %13, 1
  %.not = icmp eq i64 %14, 0
  br i1 %.not, label %15, label %lean_inc.exit

15:                                               ; preds = %12
  %.val.i = load i32, ptr %6, align 4, !tbaa !8
  %16 = icmp sgt i32 %.val.i, 0
  br i1 %16, label %17, label %19, !prof !11

17:                                               ; preds = %15
  %18 = add nuw i32 %.val.i, 1
  store i32 %18, ptr %6, align 4, !tbaa !8
  br label %lean_inc.exit

19:                                               ; preds = %15
  %.not.i = icmp eq i32 %.val.i, 0
  br i1 %.not.i, label %lean_inc.exit, label %20

20:                                               ; preds = %19
  tail call void @lean_inc_ref_cold(ptr noundef nonnull %6) #5
  br label %lean_inc.exit

lean_inc.exit:                                    ; preds = %20, %19, %17, %12
  tail call void @lean_inc_heartbeat() #5
  %21 = tail call noalias ptr @mi_malloc_small(i64 noundef 80) #5
  %22 = icmp eq ptr %21, null
  br i1 %22, label %23, label %lean_alloc_closure.exit

23:                                               ; preds = %lean_inc.exit
  tail call void @lean_internal_panic_out_of_memory() #6
  unreachable

lean_alloc_closure.exit:                          ; preds = %lean_inc.exit
  %24 = zext i8 %3 to i64
  %25 = shl nuw nsw i64 %24, 1
  %26 = or disjoint i64 %25, 1
  %27 = inttoptr i64 %26 to ptr
  %28 = getelementptr inbounds nuw i8, ptr %21, i64 4
  store i32 1, ptr %21, align 4, !tbaa !8
  store i32 -184549296, ptr %28, align 4
  %29 = getelementptr inbounds nuw i8, ptr %21, i64 8
  store ptr @l___private_Lean_Meta_Injective_0__Lean_Meta_mkInjectiveTheoremTypeCore_x3f___lambda__3___boxed, ptr %29, align 8, !tbaa !4
  %30 = getelementptr inbounds nuw i8, ptr %21, i64 16
  store i16 14, ptr %30, align 8, !tbaa !15
  %31 = getelementptr inbounds nuw i8, ptr %21, i64 18
  store i16 7, ptr %31, align 2, !tbaa !15
  %32 = getelementptr inbounds nuw i8, ptr %21, i64 24
  store ptr %0, ptr %32, align 8, !tbaa !4
  %33 = getelementptr inbounds nuw i8, ptr %21, i64 32
  store ptr %1, ptr %33, align 8, !tbaa !4
  %34 = getelementptr inbounds nuw i8, ptr %21, i64 40
  store ptr %5, ptr %34, align 8, !tbaa !4
  %35 = getelementptr inbounds nuw i8, ptr %21, i64 48
  store ptr %2, ptr %35, align 8, !tbaa !4
  %36 = getelementptr inbounds nuw i8, ptr %21, i64 56
  store ptr %27, ptr %36, align 8, !tbaa !4
  %37 = getelementptr inbounds nuw i8, ptr %21, i64 64
  store ptr %4, ptr %37, align 8, !tbaa !4
  %38 = getelementptr inbounds nuw i8, ptr %21, i64 72
  store ptr %6, ptr %38, align 8, !tbaa !4
  %39 = tail call ptr @l_Lean_Meta_forallTelescope___at_Lean_Meta_mapForallTelescope_x27___spec__1___rarg(ptr noundef %6, ptr noundef nonnull %21, i8 noundef zeroext 0, ptr noundef %7, ptr noundef %8, ptr noundef %9, ptr noundef %10, ptr noundef %11) #5
  ret ptr %39
}